target datalayout = "e-m:e-p270:32:32-p271:32:32-p272:64:64-i64:64-i128:128-f80:128-n8:16:32:64-S128"
target triple = "x86_64-pc-linux-gnu"

%struct.Curl_handler = type { ptr, ptr, ptr, ptr, ptr, ptr, ptr, ptr, ptr, ptr, ptr, ptr, ptr, ptr, ptr, ptr, i32, i32, i32, i32 }
%struct.Curl_easy = type { i32, i64, ptr, ptr, ptr, %struct.Curl_llist_element, %struct.Curl_llist_element, i32, i32, %struct.Curl_message, %struct.easy_pollset, %struct.Names, ptr, ptr, ptr, %struct.SingleRequest, %struct.UserDefined, ptr, ptr, %struct.Progress, %struct.UrlState, ptr, %struct.PureInfo, %struct.curl_tlssessioninfo }
%struct.Curl_llist_element = type { ptr, ptr, ptr }
%struct.Curl_message = type { %struct.Curl_llist_element, %struct.CURLMsg }
%struct.CURLMsg = type { i32, ptr, %union.anon }
%union.anon = type { ptr }
%struct.easy_pollset = type { [5 x i32], i32, [5 x i8] }
%struct.Names = type { ptr, i32 }
%struct.SingleRequest = type <{ i64, i64, i64, i64, i64, %struct.curltime, i32, i32, i32, i32, i64, i32, i32, %struct.curltime, i32, i32, ptr, i64, i64, ptr, ptr, i64, ptr, %union.anon.0, ptr, [2 x i8], i8, i16, [3 x i8] }>
%struct.curltime = type { i64, i32 }
%union.anon.0 = type { ptr }
%struct.UserDefined = type <{ ptr, ptr, ptr, ptr, ptr, ptr, i16, [6 x i8], i64, i64, i64, ptr, ptr, i64, i16, i16, [4 x i8], ptr, ptr, ptr, ptr, ptr, ptr, ptr, ptr, ptr, ptr, ptr, ptr, ptr, ptr, ptr, ptr, ptr, ptr, ptr, ptr, ptr, ptr, ptr, i32, i32, i32, i32, i64, i64, i64, i64, i64, i64, i64, i64, ptr, ptr, %struct.curl_mimepart, ptr, ptr, i64, i8, i8, i8, [5 x i8], %struct.ssl_config_data, %struct.ssl_config_data, ptr, i16, i8, i8, [4 x i8], %struct.ssl_general_config, i32, i32, i32, [4 x i8], ptr, ptr, i8, [7 x i8], i64, i8, i8, i8, i8, i32, ptr, ptr, ptr, i8, i8, [2 x i8], i32, [80 x ptr], [8 x ptr], i32, i32, i32, [4 x i8], ptr, ptr, ptr, ptr, ptr, i8, [3 x i8], i32, i32, [4 x i8], i64, %struct.Curl_data_priority, ptr, ptr, i64, ptr, ptr, ptr, ptr, ptr, i8, [3 x i8], i32, i8, i8, i56, [6 x i8] }>
%struct.curl_mimepart = type { ptr, ptr, i32, i32, ptr, ptr, ptr, ptr, ptr, ptr, ptr, ptr, ptr, ptr, ptr, i64, %struct.mime_state, ptr, %struct.mime_encoder_state, i64 }
%struct.mime_state = type { i32, ptr, i64 }
%struct.mime_encoder_state = type { i64, i64, i64, [256 x i8] }
%struct.ssl_config_data = type { %struct.ssl_primary_config, i64, ptr, ptr, ptr, ptr, ptr, ptr, ptr, i8 }
%struct.ssl_primary_config = type { ptr, ptr, ptr, ptr, ptr, ptr, ptr, ptr, ptr, ptr, ptr, ptr, i8, i32, i8, i8 }
%struct.ssl_general_config = type { i64, i32 }
%struct.Curl_data_priority = type { ptr, ptr, i32, i8 }
%struct.Progress = type { i64, i64, i64, i64, i64, i64, i32, i32, i64, i64, i64, i64, i64, i64, i64, i64, i64, i64, %struct.curltime, %struct.curltime, %struct.curltime, %struct.curltime, %struct.curltime, i64, %struct.curltime, i64, [6 x i64], [6 x %struct.curltime], i32, i8 }
%struct.UrlState = type { ptr, %struct.curltime, i64, i64, %struct.dynbuf, ptr, ptr, ptr, i64, ptr, i32, i32, i32, ptr, i64, [3 x %struct.tempbuf], i32, i32, ptr, i64, i32, ptr, %struct.digestdata, %struct.digestdata, %struct.auth, %struct.auth, %struct.Curl_async, ptr, %struct.curltime, %struct.Curl_tree, %struct.Curl_llist, [15 x %struct.time_node], ptr, i8, i64, ptr, i64, i64, %struct.Curl_data_priority, ptr, ptr, ptr, %struct.urlpieces, ptr, ptr, ptr, ptr, ptr, i64, %struct.dynbuf, %struct.Curl_llist, [2 x %struct.curl_header], ptr, i32, ptr, %struct.dynamically_allocated_data, i8, i8, i8, i8, i24 }
%struct.tempbuf = type { %struct.dynbuf, i32, i8 }
%struct.digestdata = type { ptr, ptr, ptr, ptr, ptr, ptr, i32, i8, i8 }
%struct.auth = type { i64, i64, i64, i8 }
%struct.Curl_async = type { ptr, ptr, ptr, ptr, i32, i32, i8 }
%struct.Curl_tree = type { ptr, ptr, ptr, ptr, %struct.curltime, ptr }
%struct.time_node = type { %struct.Curl_llist_element, %struct.curltime, i32 }
%struct.urlpieces = type { ptr, ptr, ptr, ptr, ptr, ptr, ptr, ptr }
%struct.dynbuf = type { ptr, i64, i64, i64 }
%struct.Curl_llist = type { ptr, ptr, ptr, i64 }
%struct.curl_header = type { ptr, ptr, i64, i64, i32, ptr }
%struct.dynamically_allocated_data = type { ptr, ptr, ptr, ptr, ptr, ptr, ptr, ptr, ptr, ptr, ptr, ptr, ptr, ptr }
%struct.PureInfo = type { i32, i32, i32, i64, i64, i64, i64, i64, ptr, ptr, i64, i32, [46 x i8], i32, i32, [46 x i8], i32, ptr, i32, %struct.curl_certinfo, i32, i8 }
%struct.curl_certinfo = type { i32, ptr }
%struct.curl_tlssessioninfo = type { i32, ptr }
%struct.connectdata = type { %struct.Curl_llist_element, ptr, ptr, i64, ptr, ptr, %struct.hostname, ptr, ptr, %struct.hostname, %struct.proxy_info, %struct.proxy_info, [46 x i8], ptr, ptr, ptr, ptr, ptr, %struct.curltime, %struct.curltime, %struct.curltime, [2 x i32], [2 x ptr], [2 x ptr], [2 x ptr], %struct.ssl_primary_config, %struct.ssl_primary_config, %struct.ConnectBits, ptr, ptr, %struct.curltime, i32, i32, %struct.Curl_llist, ptr, ptr, i32, i32, %struct.ntlmdata, %struct.ntlmdata, %union.anon.1, ptr, ptr, i16, i32, i32, i32, i32, i32, i16, i16, i8, i8, i8, i8, i8, i8, i8 }
%struct.hostname = type { ptr, ptr, ptr, ptr }
%struct.proxy_info = type { %struct.hostname, i32, i8, ptr, ptr }
%struct.ConnectBits = type { i32 }
%struct.ntlmdata = type { i32, [8 x i8], i32, ptr }
%union.anon.1 = type { %struct.ftp_conn }
%struct.ftp_conn = type { %struct.pingpong, ptr, ptr, ptr, ptr, ptr, ptr, ptr, i8, i64, ptr, i64, i32, i32, i32, i32, i32, i16, i8, i8, i8, i8, i8 }
%struct.pingpong = type { i64, i8, ptr, i64, i64, %struct.curltime, i64, %struct.dynbuf, %struct.dynbuf, i64, i64, ptr, ptr }
%struct.smb_conn = type { i32, ptr, ptr, ptr, [8 x i8], i32, i16, ptr, i64, i64, i64, i64 }
%struct.smb_header = type <{ i8, i8, i16, [4 x i8], i8, i32, i8, i16, i16, [8 x i8], i16, i16, i16, i16, i16 }>
%struct.smb_negotiate_response = type <{ %struct.smb_header, i8, i16, i8, i16, i16, i32, i32, i32, i32, i32, i32, i16, i8, i16, [1 x i8] }>

@.str.3 = private unnamed_addr constant [15 x i8] c"\00\0C\00\02NT LM 0.12\00", align 1

; Function Attrs: nounwind uwtable
define internal void @smb_pop_message(ptr noundef %0) #0 {
  %2 = alloca ptr, align 8
  %3 = alloca ptr, align 8
  store ptr %0, ptr %2, align 8
  %4 = load ptr, ptr %2, align 8
  %5 = getelementptr inbounds %struct.connectdata, ptr %4, i32 0, i32 40
  store ptr %5, ptr %3, align 8
  %6 = load ptr, ptr %3, align 8
  %7 = getelementptr inbounds %struct.smb_conn, ptr %6, i32 0, i32 11
  store i64 0, ptr %7, align 8
  ret void
}

; Function Attrs: nounwind uwtable
define internal void @conn_state(ptr noundef %0, i32 noundef %1) #0 {
  %3 = alloca ptr, align 8
  %4 = alloca i32, align 4
  %5 = alloca ptr, align 8
  store ptr %0, ptr %3, align 8
  store i32 %1, ptr %4, align 4
  %6 = load ptr, ptr %3, align 8
  %7 = getelementptr inbounds %struct.Curl_easy, ptr %6, i32 0, i32 4
  %8 = load ptr, ptr %7, align 8
  %9 = getelementptr inbounds %struct.connectdata, ptr %8, i32 0, i32 40
  store ptr %9, ptr %5, align 8
  %10 = load i32, ptr %4, align 4
  %11 = load ptr, ptr %5, align 8
  %12 = getelementptr inbounds %struct.smb_conn, ptr %11, i32 0, i32 0
  store i32 %10, ptr %12, align 8
  ret void
}

; Function Attrs: nounwind uwtable
define internal i32 @smb_send_negotiate(ptr noundef %0) #0 {
  %2 = alloca ptr, align 8
  %3 = alloca ptr, align 8
  store ptr %0, ptr %2, align 8
  store ptr @.str.3, ptr %3, align 8
  %4 = load ptr, ptr %2, align 8
  %5 = load ptr, ptr %3, align 8
  %6 = call i32 @smb_send_message(ptr noundef %4, i8 noundef zeroext 114, ptr noundef %5, i64 noundef 15)
  ret i32 %6
}

; Function Attrs: nounwind uwtable
define internal i32 @smb_connection_state(ptr noundef %0, ptr noundef %1) #0 {
  %3 = alloca i32, align 4
  %4 = alloca ptr, align 8
  %5 = alloca ptr, align 8
  %6 = alloca ptr, align 8
  %7 = alloca ptr, align 8
  %8 = alloca ptr, align 8
  %9 = alloca ptr, align 8
  %10 = alloca i32, align 4
  %11 = alloca ptr, align 8
  %12 = alloca i8, align 1
  store ptr %0, ptr %4, align 8
  store ptr %1, ptr %5, align 8
  %13 = load ptr, ptr %4, align 8
  %14 = getelementptr inbounds %struct.Curl_easy, ptr %13, i32 0, i32 4
  %15 = load ptr, ptr %14, align 8
  store ptr %15, ptr %6, align 8
  %16 = load ptr, ptr %6, align 8
  %17 = getelementptr inbounds %struct.connectdata, ptr %16, i32 0, i32 40
  store ptr %17, ptr %7, align 8
  store ptr null, ptr %11, align 8
  %18 = load ptr, ptr %7, align 8
  %19 = getelementptr inbounds %struct.smb_conn, ptr %18, i32 0, i32 0
  %20 = load i32, ptr %19, align 8
  %21 = icmp eq i32 %20, 1
  br i1 %21, label %22, label %55

22:                                               ; preds = %2
  %23 = load ptr, ptr %6, align 8
  %24 = getelementptr inbounds %struct.connectdata, ptr %23, i32 0, i32 28
  %25 = load ptr, ptr %24, align 8
  %26 = getelementptr inbounds %struct.Curl_handler, ptr %25, i32 0, i32 19
  %27 = load i32, ptr %26, align 4
  %28 = and i32 %27, 1
  %29 = icmp ne i32 %28, 0
  br i1 %29, label %30, label %45

30:                                               ; preds = %22
  store i8 0, ptr %12, align 1
  %31 = load ptr, ptr %4, align 8
  %32 = call i32 @Curl_conn_connect(ptr noundef %31, i32 noundef 0, i1 noundef zeroext false, ptr noundef %12)
  store i32 %32, ptr %10, align 4
  %33 = load i32, ptr %10, align 4
  %34 = icmp ne i32 %33, 0
  br i1 %34, label %35, label %40

35:                                               ; preds = %30
  %36 = load i32, ptr %10, align 4
  %37 = icmp ne i32 %36, 81
  br i1 %37, label %38, label %40

38:                                               ; preds = %35
  %39 = load i32, ptr %10, align 4
  store i32 %39, ptr %3, align 4
  br label %128

40:                                               ; preds = %35, %30
  %41 = load i8, ptr %12, align 1
  %42 = trunc i8 %41 to i1
  br i1 %42, label %44, label %43

43:                                               ; preds = %40
  store i32 0, ptr %3, align 4
  br label %128

44:                                               ; preds = %40
  br label %45

45:                                               ; preds = %44, %22
  %46 = load ptr, ptr %4, align 8
  %47 = call i32 @smb_send_negotiate(ptr noundef %46)
  store i32 %47, ptr %10, align 4
  %48 = load i32, ptr %10, align 4
  %49 = icmp ne i32 %48, 0
  br i1 %49, label %50, label %53

50:                                               ; preds = %45
  %51 = load ptr, ptr %6, align 8
  call void @Curl_conncontrol(ptr noundef %51, i32 noundef 1)
  %52 = load i32, ptr %10, align 4
  store i32 %52, ptr %3, align 4
  br label %128

53:                                               ; preds = %45
  %54 = load ptr, ptr %4, align 8
  call void @conn_state(ptr noundef %54, i32 noundef 2)
  br label %55

55:                                               ; preds = %53, %2
  %56 = load ptr, ptr %4, align 8
  %57 = call i32 @smb_send_and_recv(ptr noundef %56, ptr noundef %11)
  store i32 %57, ptr %10, align 4
  %58 = load i32, ptr %10, align 4
  %59 = icmp ne i32 %58, 0
  br i1 %59, label %60, label %66

60:                                               ; preds = %55
  %61 = load i32, ptr %10, align 4
  %62 = icmp ne i32 %61, 81
  br i1 %62, label %63, label %66

63:                                               ; preds = %60
  %64 = load ptr, ptr %6, align 8
  call void @Curl_conncontrol(ptr noundef %64, i32 noundef 1)
  %65 = load i32, ptr %10, align 4
  store i32 %65, ptr %3, align 4
  br label %128

66:                                               ; preds = %60, %55
  %67 = load ptr, ptr %11, align 8
  %68 = icmp ne ptr %67, null
  br i1 %68, label %70, label %69

69:                                               ; preds = %66
  store i32 0, ptr %3, align 4
  br label %128

70:                                               ; preds = %66
  %71 = load ptr, ptr %11, align 8
  store ptr %71, ptr %9, align 8
  %72 = load ptr, ptr %7, align 8
  %73 = getelementptr inbounds %struct.smb_conn, ptr %72, i32 0, i32 0
  %74 = load i32, ptr %73, align 8
  switch i32 %74, label %124 [
    i32 2, label %75
    i32 3, label %109
  ]

75:                                               ; preds = %70
  %76 = load ptr, ptr %7, align 8
  %77 = getelementptr inbounds %struct.smb_conn, ptr %76, i32 0, i32 11
  %78 = load i64, ptr %77, align 8
  %79 = icmp ult i64 %78, 81
  br i1 %79, label %85, label %80

80:                                               ; preds = %75
  %81 = load ptr, ptr %9, align 8
  %82 = getelementptr inbounds %struct.smb_header, ptr %81, i32 0, i32 5
  %83 = load i32, ptr %82, align 1
  %84 = icmp ne i32 %83, 0
  br i1 %84, label %85, label %87

85:                                               ; preds = %80, %75
  %86 = load ptr, ptr %6, align 8
  call void @Curl_conncontrol(ptr noundef %86, i32 noundef 1)
  store i32 7, ptr %3, align 4
  br label %128

87:                                               ; preds = %80
  %88 = load ptr, ptr %11, align 8
  store ptr %88, ptr %8, align 8
  %89 = load ptr, ptr %7, align 8
  %90 = getelementptr inbounds %struct.smb_conn, ptr %89, i32 0, i32 4
  %91 = getelementptr inbounds [8 x i8], ptr %90, i64 0, i64 0
  %92 = load ptr, ptr %8, align 8
  %93 = getelementptr inbounds %struct.smb_negotiate_response, ptr %92, i32 0, i32 15
  %94 = getelementptr inbounds [1 x i8], ptr %93, i64 0, i64 0
  call void @llvm.memcpy.p0.p0.i64(ptr align 8 %91, ptr align 1 %94, i64 8, i1 false)
  %95 = load ptr, ptr %8, align 8
  %96 = getelementptr inbounds %struct.smb_negotiate_response, ptr %95, i32 0, i32 8
  %97 = load i32, ptr %96, align 1
  %98 = load ptr, ptr %7, align 8
  %99 = getelementptr inbounds %struct.smb_conn, ptr %98, i32 0, i32 5
  store i32 %97, ptr %99, align 8
  %100 = load ptr, ptr %4, align 8
  %101 = call i32 @smb_send_setup(ptr noundef %100)
  store i32 %101, ptr %10, align 4
  %102 = load i32, ptr %10, align 4
  %103 = icmp ne i32 %102, 0
  br i1 %103, label %104, label %107

104:                                              ; preds = %87
  %105 = load ptr, ptr %6, align 8
  call void @Curl_conncontrol(ptr noundef %105, i32 noundef 1)
  %106 = load i32, ptr %10, align 4
  store i32 %106, ptr %3, align 4
  br label %128

107:                                              ; preds = %87
  %108 = load ptr, ptr %4, align 8
  call void @conn_state(ptr noundef %108, i32 noundef 3)
  br label %126

109:                                              ; preds = %70
  %110 = load ptr, ptr %9, align 8
  %111 = getelementptr inbounds %struct.smb_header, ptr %110, i32 0, i32 5
  %112 = load i32, ptr %111, align 1
  %113 = icmp ne i32 %112, 0
  br i1 %113, label %114, label %116

114:                                              ; preds = %109
  %115 = load ptr, ptr %6, align 8
  call void @Curl_conncontrol(ptr noundef %115, i32 noundef 1)
  store i32 67, ptr %3, align 4
  br label %128

116:                                              ; preds = %109
  %117 = load ptr, ptr %9, align 8
  %118 = getelementptr inbounds %struct.smb_header, ptr %117, i32 0, i32 13
  %119 = load i16, ptr %118, align 1
  %120 = load ptr, ptr %7, align 8
  %121 = getelementptr inbounds %struct.smb_conn, ptr %120, i32 0, i32 6
  store i16 %119, ptr %121, align 4
  %122 = load ptr, ptr %4, align 8
  call void @conn_state(ptr noundef %122, i32 noundef 4)
  %123 = load ptr, ptr %5, align 8
  store i8 1, ptr %123, align 1
  br label %126

124:                                              ; preds = %70
  %125 = load ptr, ptr %6, align 8
  call void @smb_pop_message(ptr noundef %125)
  store i32 0, ptr %3, align 4
  br label %128

126:                                              ; preds = %116, %107
  %127 = load ptr, ptr %6, align 8
  call void @smb_pop_message(ptr noundef %127)
  store i32 0, ptr %3, align 4
  br label %128

128:                                              ; preds = %126, %124, %114, %104, %85, %69, %63, %50, %43, %38
  %129 = load i32, ptr %3, align 4
  ret i32 %129
}