; Function Attrs: nounwind uwtable
define internal i32 @smb_connection_state(ptr noundef %0, ptr noundef writeonly captures(none) %1) #0 {
  %3 = alloca ptr, align 8
  %4 = alloca i8, align 1
  %5 = getelementptr inbounds nuw i8, ptr %0, i64 32
  %6 = load ptr, ptr %5, align 8
  %7 = getelementptr inbounds nuw i8, ptr %6, i64 824
  %8 = load i32, ptr %7, align 8
  %9 = icmp eq i32 %8, 1
  br i1 %9, label %10, label %26

10:                                               ; preds = %2
  %11 = getelementptr inbounds nuw i8, ptr %6, i64 680
  %12 = load ptr, ptr %11, align 8
  %13 = getelementptr inbounds nuw i8, ptr %12, i64 140
  %14 = load i32, ptr %13, align 4
  %15 = and i32 %14, 1
  %.not = icmp eq i32 %15, 0
  br i1 %.not, label %21, label %16

16:                                               ; preds = %10
  store i8 0, ptr %4, align 1
  %17 = call i32 @Curl_conn_connect(ptr noundef nonnull %0, i32 noundef 0, i1 noundef zeroext false, ptr noundef nonnull %4) #12
  switch i32 %17, label %65 [
    i32 81, label %18
    i32 0, label %18
  ]

18:                                               ; preds = %16, %16
  %19 = load i8, ptr %4, align 1
  %20 = trunc i8 %19 to i1
  br i1 %20, label %21, label %65

21:                                               ; preds = %18, %10
  %22 = call fastcc i32 @smb_send_message(ptr noundef nonnull %0, i8 noundef zeroext 114, ptr noundef nonnull @.str.3, i64 noundef 15)
  %.not47 = icmp eq i32 %22, 0
  br i1 %.not47, label %24, label %23

23:                                               ; preds = %21
  call void @Curl_conncontrol(ptr noundef nonnull %6, i32 noundef 1) #12
  br label %65

24:                                               ; preds = %21
  %.val = load ptr, ptr %5, align 8
  %25 = getelementptr inbounds nuw i8, ptr %.val, i64 824
  store i32 2, ptr %25, align 8
  br label %26

26:                                               ; preds = %24, %2
  %27 = call fastcc i32 @smb_send_and_recv(ptr noundef nonnull %0, ptr noundef %3)
  switch i32 %27, label %28 [
    i32 81, label %29
    i32 0, label %29
  ]

28:                                               ; preds = %26
  call void @Curl_conncontrol(ptr noundef nonnull %6, i32 noundef 1) #12
  br label %65

29:                                               ; preds = %26, %26
  %30 = load ptr, ptr %3, align 8
  %.not48 = icmp eq ptr %30, null
  br i1 %.not48, label %65, label %31

31:                                               ; preds = %29
  %32 = load i32, ptr %7, align 8
  switch i32 %32, label %61 [
    i32 2, label %33
    i32 3, label %52
  ]

33:                                               ; preds = %31
  %34 = getelementptr inbounds nuw i8, ptr %6, i64 904
  %35 = load i64, ptr %34, align 8
  %36 = icmp ult i64 %35, 81
  br i1 %36, label %40, label %37

37:                                               ; preds = %33
  %38 = getelementptr inbounds nuw i8, ptr %30, i64 9
  %39 = load i32, ptr %38, align 1
  %.not50 = icmp eq i32 %39, 0
  br i1 %.not50, label %41, label %40

40:                                               ; preds = %37, %33
  call void @Curl_conncontrol(ptr noundef nonnull %6, i32 noundef 1) #12
  br label %65

41:                                               ; preds = %37
  %42 = getelementptr inbounds nuw i8, ptr %6, i64 856
  %43 = getelementptr inbounds nuw i8, ptr %30, i64 73
  %44 = load i64, ptr %43, align 1
  store i64 %44, ptr %42, align 8
  %45 = getelementptr inbounds nuw i8, ptr %30, i64 52
  %46 = load i32, ptr %45, align 1
  %47 = getelementptr inbounds nuw i8, ptr %6, i64 864
  store i32 %46, ptr %47, align 8
  %48 = call fastcc i32 @smb_send_setup(ptr noundef nonnull %0)
  %.not51 = icmp eq i32 %48, 0
  br i1 %.not51, label %50, label %49

49:                                               ; preds = %41
  call void @Curl_conncontrol(ptr noundef nonnull %6, i32 noundef 1) #12
  br label %65

50:                                               ; preds = %41
  %.val52 = load ptr, ptr %5, align 8
  %51 = getelementptr inbounds nuw i8, ptr %.val52, i64 824
  store i32 3, ptr %51, align 8
  br label %63

52:                                               ; preds = %31
  %53 = getelementptr inbounds nuw i8, ptr %30, i64 9
  %54 = load i32, ptr %53, align 1
  %.not49 = icmp eq i32 %54, 0
  br i1 %.not49, label %56, label %55

55:                                               ; preds = %52
  call void @Curl_conncontrol(ptr noundef nonnull %6, i32 noundef 1) #12
  br label %65

56:                                               ; preds = %52
  %57 = getelementptr inbounds nuw i8, ptr %30, i64 32
  %58 = load i16, ptr %57, align 1
  %59 = getelementptr inbounds nuw i8, ptr %6, i64 868
  store i16 %58, ptr %59, align 4
  %.val53 = load ptr, ptr %5, align 8
  %60 = getelementptr inbounds nuw i8, ptr %.val53, i64 824
  store i32 4, ptr %60, align 8
  store i8 1, ptr %1, align 1
  br label %63

61:                                               ; preds = %31
  %62 = getelementptr inbounds nuw i8, ptr %6, i64 904
  store i64 0, ptr %62, align 8
  br label %65

63:                                               ; preds = %56, %50
  %64 = getelementptr inbounds nuw i8, ptr %6, i64 904
  store i64 0, ptr %64, align 8
  br label %65

65:                                               ; preds = %29, %18, %16, %63, %61, %55, %49, %40, %28, %23
  %.0 = phi i32 [ %22, %23 ], [ %27, %28 ], [ 0, %61 ], [ 67, %55 ], [ 0, %63 ], [ 7, %40 ], [ %48, %49 ], [ %17, %16 ], [ 0, %18 ], [ 0, %29 ]
  ret i32 %.0
}